target datalayout = "e-m:e-p270:32:32-p271:32:32-p272:64:64-i64:64-i128:128-f80:128-n8:16:32:64-S128"
target triple = "x86_64-pc-linux-gnu"

%struct.PyVarObject = type { %struct._object, i64 }
%struct._object = type { %union.anon, ptr }
%union.anon = type { i64 }
%struct._typeobject = type { %struct.PyVarObject, ptr, i64, i64, ptr, i64, ptr, ptr, ptr, ptr, ptr, ptr, ptr, ptr, ptr, ptr, ptr, ptr, ptr, i64, ptr, ptr, ptr, ptr, i64, ptr, ptr, ptr, ptr, ptr, ptr, ptr, ptr, ptr, i64, ptr, ptr, ptr, ptr, ptr, ptr, ptr, ptr, ptr, ptr, ptr, i32, ptr, ptr, i8, i16 }
%struct.PyPickleBufferObject = type { %struct._object, %struct.Py_buffer, ptr }
%struct.Py_buffer = type { ptr, ptr, i64, i64, i32, i32, ptr, ptr, ptr, ptr, ptr }
%struct.anon = type { i32, i32 }

@__const.picklebuf_new.keywords = private unnamed_addr constant [2 x ptr] [ptr @.str.10, ptr null], align 16
@.str.11 = private unnamed_addr constant [15 x i8] c"O:PickleBuffer\00", align 1

; Function Attrs: alwaysinline nounwind uwtable
define internal i32 @_Py_IsImmortal(ptr noundef %0) #3 {
  %2 = alloca ptr, align 8
  store ptr %0, ptr %2, align 8, !tbaa !4
  %3 = load ptr, ptr %2, align 8, !tbaa !4
  %4 = getelementptr inbounds nuw %struct._object, ptr %3, i32 0, i32 0
  %5 = getelementptr inbounds nuw %struct.anon, ptr %4, i32 0, i32 0
  %6 = load i32, ptr %5, align 8, !tbaa !28
  %7 = icmp slt i32 %6, 0
  %8 = zext i1 %7 to i32
  ret i32 %8
}

; Function Attrs: alwaysinline nounwind uwtable
define internal void @Py_DECREF(ptr noundef %0) #3 {
  %2 = alloca ptr, align 8
  store ptr %0, ptr %2, align 8, !tbaa !4
  %3 = load ptr, ptr %2, align 8, !tbaa !4
  %4 = call i32 @_Py_IsImmortal(ptr noundef %3)
  %5 = icmp ne i32 %4, 0
  br i1 %5, label %6, label %7

6:                                                ; preds = %1
  br label %16

7:                                                ; preds = %1
  %8 = load ptr, ptr %2, align 8, !tbaa !4
  %9 = getelementptr inbounds nuw %struct._object, ptr %8, i32 0, i32 0
  %10 = getelementptr inbounds nuw %struct.anon, ptr %9, i32 0, i32 0
  %11 = load i32, ptr %10, align 8, !tbaa !28
  %12 = add i32 %11, -1
  store i32 %12, ptr %10, align 8, !tbaa !28
  %13 = icmp eq i32 %12, 0
  br i1 %13, label %14, label %16

14:                                               ; preds = %7
  %15 = load ptr, ptr %2, align 8, !tbaa !4
  call void @_Py_Dealloc(ptr noundef %15)
  br label %16

16:                                               ; preds = %6, %14, %7
  ret void
}

; Function Attrs: nounwind uwtable
define internal ptr @picklebuf_new(ptr noundef %0, ptr noundef %1, ptr noundef %2) #0 {
  %4 = alloca ptr, align 8
  %5 = alloca ptr, align 8
  %6 = alloca ptr, align 8
  %7 = alloca ptr, align 8
  %8 = alloca ptr, align 8
  %9 = alloca ptr, align 8
  %10 = alloca [2 x ptr], align 16
  %11 = alloca i32, align 4
  store ptr %0, ptr %5, align 8, !tbaa !9
  store ptr %1, ptr %6, align 8, !tbaa !4
  store ptr %2, ptr %7, align 8, !tbaa !4
  call void @llvm.lifetime.start.p0(i64 8, ptr %8) #6
  call void @llvm.lifetime.start.p0(i64 8, ptr %9) #6
  call void @llvm.lifetime.start.p0(i64 16, ptr %10) #6
  call void @llvm.memcpy.p0.p0.i64(ptr align 16 %10, ptr align 16 @__const.picklebuf_new.keywords, i64 16, i1 false)
  %12 = load ptr, ptr %6, align 8, !tbaa !4
  %13 = load ptr, ptr %7, align 8, !tbaa !4
  %14 = getelementptr inbounds [2 x ptr], ptr %10, i64 0, i64 0
  %15 = call i32 (ptr, ptr, ptr, ptr, ...) @PyArg_ParseTupleAndKeywords(ptr noundef %12, ptr noundef %13, ptr noundef @.str.11, ptr noundef %14, ptr noundef %9)
  %16 = icmp ne i32 %15, 0
  br i1 %16, label %18, label %17

17:                                               ; preds = %3
  store ptr null, ptr %4, align 8
  store i32 1, ptr %11, align 4
  br label %42

18:                                               ; preds = %3
  %19 = load ptr, ptr %5, align 8, !tbaa !9
  %20 = getelementptr inbounds nuw %struct._typeobject, ptr %19, i32 0, i32 36
  %21 = load ptr, ptr %20, align 8, !tbaa !11
  %22 = load ptr, ptr %5, align 8, !tbaa !9
  %23 = call ptr %21(ptr noundef %22, i64 noundef 0)
  store ptr %23, ptr %8, align 8, !tbaa !22
  %24 = load ptr, ptr %8, align 8, !tbaa !22
  %25 = icmp eq ptr %24, null
  br i1 %25, label %26, label %27

26:                                               ; preds = %18
  store ptr null, ptr %4, align 8
  store i32 1, ptr %11, align 4
  br label %42

27:                                               ; preds = %18
  %28 = load ptr, ptr %8, align 8, !tbaa !22
  %29 = getelementptr inbounds nuw %struct.PyPickleBufferObject, ptr %28, i32 0, i32 1
  %30 = getelementptr inbounds nuw %struct.Py_buffer, ptr %29, i32 0, i32 1
  store ptr null, ptr %30, align 8, !tbaa !23
  %31 = load ptr, ptr %8, align 8, !tbaa !22
  %32 = getelementptr inbounds nuw %struct.PyPickleBufferObject, ptr %31, i32 0, i32 2
  store ptr null, ptr %32, align 8, !tbaa !27
  %33 = load ptr, ptr %9, align 8, !tbaa !4
  %34 = load ptr, ptr %8, align 8, !tbaa !22
  %35 = getelementptr inbounds nuw %struct.PyPickleBufferObject, ptr %34, i32 0, i32 1
  %36 = call i32 @PyObject_GetBuffer(ptr noundef %33, ptr noundef %35, i32 noundef 284)
  %37 = icmp slt i32 %36, 0
  br i1 %37, label %38, label %40

38:                                               ; preds = %27
  %39 = load ptr, ptr %8, align 8, !tbaa !22
  call void @Py_DECREF(ptr noundef %39)
  store ptr null, ptr %4, align 8
  store i32 1, ptr %11, align 4
  br label %42

40:                                               ; preds = %27
  %41 = load ptr, ptr %8, align 8, !tbaa !22
  store ptr %41, ptr %4, align 8
  store i32 1, ptr %11, align 4
  br label %42

42:                                               ; preds = %40, %38, %26, %17
  call void @llvm.lifetime.end.p0(i64 16, ptr %10) #6
  call void @llvm.lifetime.end.p0(i64 8, ptr %9) #6
  call void @llvm.lifetime.end.p0(i64 8, ptr %8) #6
  %43 = load ptr, ptr %4, align 8
  ret ptr %43
}