; Function Attrs: nounwind uwtable
define internal ptr @picklebuf_new(ptr noundef %0, ptr noundef %1, ptr noundef %2) #0 {
  %4 = alloca ptr, align 8
  %5 = alloca [2 x ptr], align 16
  call void @llvm.lifetime.start.p0(i64 8, ptr nonnull %4) #5
  call void @llvm.lifetime.start.p0(i64 16, ptr nonnull %5) #5
  call void @llvm.memcpy.p0.p0.i64(ptr noundef nonnull align 16 dereferenceable(16) %5, ptr noundef nonnull align 16 dereferenceable(16) @__const.picklebuf_new.keywords, i64 16, i1 false)
  %6 = call i32 (ptr, ptr, ptr, ptr, ...) @PyArg_ParseTupleAndKeywords(ptr noundef %1, ptr noundef %2, ptr noundef nonnull @.str.11, ptr noundef nonnull %5, ptr noundef nonnull %4) #5
  %.not = icmp eq i32 %6, 0
  br i1 %.not, label %Py_DECREF.exit, label %7

7:                                                ; preds = %3
  %8 = getelementptr inbounds nuw i8, ptr %0, i64 304
  %9 = load ptr, ptr %8, align 8, !tbaa !4
  %10 = call ptr %9(ptr noundef %0, i64 noundef 0) #5
  %11 = icmp eq ptr %10, null
  br i1 %11, label %Py_DECREF.exit, label %12

12:                                               ; preds = %7
  %13 = getelementptr inbounds nuw i8, ptr %10, i64 16
  %14 = getelementptr inbounds nuw i8, ptr %10, i64 24
  store ptr null, ptr %14, align 8, !tbaa !20
  %15 = getelementptr inbounds nuw i8, ptr %10, i64 96
  store ptr null, ptr %15, align 8, !tbaa !24
  %16 = load ptr, ptr %4, align 8, !tbaa !27
  %17 = call i32 @PyObject_GetBuffer(ptr noundef %16, ptr noundef nonnull %13, i32 noundef 284) #5
  %18 = icmp slt i32 %17, 0
  br i1 %18, label %19, label %Py_DECREF.exit

19:                                               ; preds = %12
  %20 = load i32, ptr %10, align 8, !tbaa !25
  %.not.i = icmp sgt i32 %20, -1
  br i1 %.not.i, label %21, label %Py_DECREF.exit

21:                                               ; preds = %19
  %22 = add nsw i32 %20, -1
  store i32 %22, ptr %10, align 8, !tbaa !25
  %23 = icmp eq i32 %22, 0
  br i1 %23, label %24, label %Py_DECREF.exit

24:                                               ; preds = %21
  call void @_Py_Dealloc(ptr noundef nonnull %10) #5
  br label %Py_DECREF.exit

Py_DECREF.exit:                                   ; preds = %24, %21, %19, %12, %7, %3
  %.0 = phi ptr [ null, %3 ], [ null, %7 ], [ %10, %12 ], [ null, %19 ], [ null, %21 ], [ null, %24 ]
  call void @llvm.lifetime.end.p0(i64 16, ptr nonnull %5) #5
  call void @llvm.lifetime.end.p0(i64 8, ptr nonnull %4) #5
  ret ptr %.0
}